target datalayout = "e-m:e-p270:32:32-p271:32:32-p272:64:64-i64:64-i128:128-f80:128-n8:16:32:64-S128"
target triple = "x86_64-pc-linux-gnu"

%"class.gmx::ArrayRef" = type { %"struct.gmx::ArrayRefIter", %"struct.gmx::ArrayRefIter" }
%"struct.gmx::ArrayRefIter" = type { ptr }

@debug = external global ptr, align 8
@.str.17 = private unnamed_addr constant [32 x i8] c"n = %td, kteh = %g evcorr = %g\0A\00", align 1

; Function Attrs: mustprogress nounwind uwtable
define linkonce_odr noundef nonnull align 4 dereferenceable(4) ptr @_ZNK3gmx12ArrayRefIterIKfEdeEv(ptr noundef nonnull align 8 dereferenceable(8) %0) #4 comdat align 2 {
  %2 = alloca ptr, align 8
  store ptr %0, ptr %2, align 8, !tbaa !19
  %3 = load ptr, ptr %2, align 8
  %4 = getelementptr inbounds nuw %"struct.gmx::ArrayRefIter", ptr %3, i32 0, i32 0
  %5 = load ptr, ptr %4, align 8, !tbaa !21
  ret ptr %5
}

; Function Attrs: mustprogress nounwind uwtable
define linkonce_odr noundef nonnull align 8 dereferenceable(8) ptr @_ZN3gmx12ArrayRefIterIKfEpLEl(ptr noundef nonnull align 8 dereferenceable(8) %0, i64 noundef %1) #4 comdat align 2 {
  %3 = alloca ptr, align 8
  %4 = alloca i64, align 8
  store ptr %0, ptr %3, align 8, !tbaa !19
  store i64 %1, ptr %4, align 8, !tbaa !25
  %5 = load ptr, ptr %3, align 8
  %6 = load i64, ptr %4, align 8, !tbaa !25
  %7 = getelementptr inbounds nuw %"struct.gmx::ArrayRefIter", ptr %5, i32 0, i32 0
  %8 = load ptr, ptr %7, align 8, !tbaa !21
  %9 = getelementptr inbounds float, ptr %8, i64 %6
  store ptr %9, ptr %7, align 8, !tbaa !21
  ret ptr %5
}

; Function Attrs: mustprogress nounwind uwtable
define linkonce_odr noundef nonnull align 8 dereferenceable(8) ptr @_ZNK3gmx5boost14stl_interfaces2v118iterator_interfaceINS_12ArrayRefIterIKfEESt26random_access_iterator_tagS5_RS5_PS5_lvE7derivedEv(ptr noundef nonnull align 1 dereferenceable(1) %0) #4 comdat align 2 {
  %2 = alloca ptr, align 8
  store ptr %0, ptr %2, align 8, !tbaa !23
  %3 = load ptr, ptr %2, align 8
  ret ptr %3
}

; Function Attrs: mustprogress nounwind uwtable
define linkonce_odr noundef i64 @_ZNK3gmx12ArrayRefIterIKfEmiES2_(ptr noundef nonnull align 8 dereferenceable(8) %0, ptr %1) #4 comdat align 2 {
  %3 = alloca %"struct.gmx::ArrayRefIter", align 8
  %4 = alloca ptr, align 8
  %5 = getelementptr inbounds nuw %"struct.gmx::ArrayRefIter", ptr %3, i32 0, i32 0
  store ptr %1, ptr %5, align 8
  store ptr %0, ptr %4, align 8, !tbaa !19
  %6 = load ptr, ptr %4, align 8
  %7 = getelementptr inbounds nuw %"struct.gmx::ArrayRefIter", ptr %6, i32 0, i32 0
  %8 = load ptr, ptr %7, align 8, !tbaa !21
  %9 = getelementptr inbounds nuw %"struct.gmx::ArrayRefIter", ptr %3, i32 0, i32 0
  %10 = load ptr, ptr %9, align 8, !tbaa !21
  %11 = ptrtoint ptr %8 to i64
  %12 = ptrtoint ptr %10 to i64
  %13 = sub i64 %11, %12
  %14 = sdiv exact i64 %13, 4
  ret i64 %14
}

; Function Attrs: mustprogress nounwind uwtable
define linkonce_odr noundef nonnull align 4 dereferenceable(4) ptr @_ZNK3gmx5boost14stl_interfaces2v118iterator_interfaceINS_12ArrayRefIterIKfEESt26random_access_iterator_tagS5_RS5_PS5_lvEixIS6_EEDTcmpLclsr3stdE7declvalIRT_EEfp_declsr3stdE7declvalISD_EEEl(ptr noundef nonnull align 1 dereferenceable(1) %0, i64 noundef %1) #4 comdat align 2 {
  %3 = alloca ptr, align 8
  %4 = alloca i64, align 8
  %5 = alloca %"struct.gmx::ArrayRefIter", align 8
  store ptr %0, ptr %3, align 8, !tbaa !23
  store i64 %1, ptr %4, align 8, !tbaa !25
  %6 = load ptr, ptr %3, align 8
  call void @llvm.lifetime.start.p0(i64 8, ptr %5) #9
  %7 = call noundef nonnull align 8 dereferenceable(8) ptr @_ZNK3gmx5boost14stl_interfaces2v118iterator_interfaceINS_12ArrayRefIterIKfEESt26random_access_iterator_tagS5_RS5_PS5_lvE7derivedEv(ptr noundef nonnull align 1 dereferenceable(1) %6) #9
  call void @llvm.memcpy.p0.p0.i64(ptr align 8 %5, ptr align 8 %7, i64 8, i1 false)
  %8 = load i64, ptr %4, align 8, !tbaa !25
  %9 = call noundef nonnull align 8 dereferenceable(8) ptr @_ZN3gmx12ArrayRefIterIKfEpLEl(ptr noundef nonnull align 8 dereferenceable(8) %5, i64 noundef %8) #9
  %10 = call noundef nonnull align 4 dereferenceable(4) ptr @_ZNK3gmx12ArrayRefIterIKfEdeEv(ptr noundef nonnull align 8 dereferenceable(8) %5) #9
  call void @llvm.lifetime.end.p0(i64 8, ptr %5) #9
  ret ptr %10
}

; Function Attrs: mustprogress nounwind uwtable
define linkonce_odr noundef i64 @_ZNK3gmx8ArrayRefIKfE4sizeEv(ptr noundef nonnull align 8 dereferenceable(16) %0) #4 comdat align 2 {
  %2 = alloca ptr, align 8
  %3 = alloca %"struct.gmx::ArrayRefIter", align 8
  store ptr %0, ptr %2, align 8, !tbaa !15
  %4 = load ptr, ptr %2, align 8
  %5 = getelementptr inbounds nuw %"class.gmx::ArrayRef", ptr %4, i32 0, i32 1
  %6 = getelementptr inbounds nuw %"class.gmx::ArrayRef", ptr %4, i32 0, i32 0
  call void @llvm.memcpy.p0.p0.i64(ptr align 8 %3, ptr align 8 %6, i64 8, i1 false)
  %7 = getelementptr inbounds nuw %"struct.gmx::ArrayRefIter", ptr %3, i32 0, i32 0
  %8 = load ptr, ptr %7, align 8
  %9 = call noundef i64 @_ZNK3gmx12ArrayRefIterIKfEmiES2_(ptr noundef nonnull align 8 dereferenceable(8) %5, ptr %8) #9
  ret i64 %9
}

; Function Attrs: mustprogress nounwind uwtable
define linkonce_odr noundef nonnull align 4 dereferenceable(4) ptr @_ZNK3gmx8ArrayRefIKfEixEm(ptr noundef nonnull align 8 dereferenceable(16) %0, i64 noundef %1) #4 comdat align 2 {
  %3 = alloca ptr, align 8
  %4 = alloca i64, align 8
  store ptr %0, ptr %3, align 8, !tbaa !15
  store i64 %1, ptr %4, align 8, !tbaa !25
  %5 = load ptr, ptr %3, align 8
  %6 = getelementptr inbounds nuw %"class.gmx::ArrayRef", ptr %5, i32 0, i32 0
  %7 = load i64, ptr %4, align 8, !tbaa !25
  %8 = call noundef nonnull align 4 dereferenceable(4) ptr @_ZNK3gmx5boost14stl_interfaces2v118iterator_interfaceINS_12ArrayRefIterIKfEESt26random_access_iterator_tagS5_RS5_PS5_lvEixIS6_EEDTcmpLclsr3stdE7declvalIRT_EEfp_declsr3stdE7declvalISD_EEEl(ptr noundef nonnull align 1 dereferenceable(1) %6, i64 noundef %7) #9
  ret ptr %8
}

; Function Attrs: mustprogress uwtable
define linkonce_odr noundef i64 @_ZNK3gmx8ArrayRefIKfE5ssizeEv(ptr noundef nonnull align 8 dereferenceable(16) %0) #0 comdat align 2 {
  %2 = alloca ptr, align 8
  store ptr %0, ptr %2, align 8, !tbaa !15
  %3 = load ptr, ptr %2, align 8
  %4 = call noundef i64 @_ZNK3gmx8ArrayRefIKfE4sizeEv(ptr noundef nonnull align 8 dereferenceable(16) %3)
  ret i64 %4
}

; Function Attrs: mustprogress nounwind uwtable
define linkonce_odr noundef i64 @_ZN3gmx5ssizeINS_8ArrayRefIKfEEEElRKT_(ptr noundef nonnull align 8 dereferenceable(16) %0) #4 comdat {
  %2 = alloca ptr, align 8
  store ptr %0, ptr %2, align 8, !tbaa !15
  %3 = load ptr, ptr %2, align 8, !tbaa !15
  %4 = call noundef i64 @_ZNK3gmx8ArrayRefIKfE4sizeEv(ptr noundef nonnull align 8 dereferenceable(16) %3)
  ret i64 %4
}

; Function Attrs: mustprogress uwtable
define noundef double @_Z20calcSchlitterEntropyN3gmx8ArrayRefIKfEEfb(ptr %0, ptr %1, float noundef %2, i1 noundef zeroext %3) #0 {
  %5 = alloca %"class.gmx::ArrayRef", align 8
  %6 = alloca float, align 4
  %7 = alloca i8, align 1
  %8 = alloca i64, align 8
  %9 = alloca double, align 8
  %10 = alloca double, align 8
  %11 = alloca double, align 8
  %12 = alloca double, align 8
  %13 = alloca double, align 8
  %14 = alloca i64, align 8
  %15 = alloca double, align 8
  %16 = getelementptr inbounds nuw { ptr, ptr }, ptr %5, i32 0, i32 0
  store ptr %0, ptr %16, align 8
  %17 = getelementptr inbounds nuw { ptr, ptr }, ptr %5, i32 0, i32 1
  store ptr %1, ptr %17, align 8
  store float %2, ptr %6, align 4, !tbaa !13
  %18 = zext i1 %3 to i8
  store i8 %18, ptr %7, align 1, !tbaa !27
  call void @llvm.lifetime.start.p0(i64 8, ptr %8) #9
  %19 = load i8, ptr %7, align 1, !tbaa !27, !range !29, !noundef !30
  %20 = trunc i8 %19 to i1
  %21 = select i1 %20, i32 5, i32 6
  %22 = sext i32 %21 to i64
  store i64 %22, ptr %8, align 8, !tbaa !25
  call void @llvm.lifetime.start.p0(i64 8, ptr %9) #9
  store double 0x38E185A7057C690D, ptr %9, align 8, !tbaa !4
  call void @llvm.lifetime.start.p0(i64 8, ptr %10) #9
  %23 = load float, ptr %6, align 4, !tbaa !13
  %24 = fpext float %23 to double
  %25 = fmul double 0x3B30B0E6D55E647C, %24
  store double %25, ptr %10, align 8, !tbaa !4
  call void @llvm.lifetime.start.p0(i64 8, ptr %11) #9
  %26 = load double, ptr %10, align 8, !tbaa !4
  %27 = call double @exp(double noundef 2.000000e+00) #9, !tbaa !8
  %28 = fmul double %26, %27
  %29 = load double, ptr %9, align 8, !tbaa !4
  %30 = load double, ptr %9, align 8, !tbaa !4
  %31 = fmul double %29, %30
  %32 = fdiv double %28, %31
  store double %32, ptr %11, align 8, !tbaa !4
  call void @llvm.lifetime.start.p0(i64 8, ptr %12) #9
  store double 0x36A2F5C2D95FF07B, ptr %12, align 8, !tbaa !4
  %33 = load ptr, ptr @debug, align 8, !tbaa !31
  %34 = icmp ne ptr %33, null
  br i1 %34, label %35, label %41

35:                                               ; preds = %4
  %36 = load ptr, ptr @debug, align 8, !tbaa !31
  %37 = call noundef i64 @_ZN3gmx5ssizeINS_8ArrayRefIKfEEEElRKT_(ptr noundef nonnull align 8 dereferenceable(16) %5)
  %38 = load double, ptr %11, align 8, !tbaa !4
  %39 = load double, ptr %12, align 8, !tbaa !4
  %40 = call i32 (ptr, ptr, ...) @fprintf(ptr noundef %36, ptr noundef @.str.17, i64 noundef %37, double noundef %38, double noundef %39) #9
  br label %41

41:                                               ; preds = %35, %4
  call void @llvm.lifetime.start.p0(i64 8, ptr %13) #9
  store double 0.000000e+00, ptr %13, align 8, !tbaa !4
  call void @llvm.lifetime.start.p0(i64 8, ptr %14) #9
  %42 = load i64, ptr %8, align 8, !tbaa !25
  store i64 %42, ptr %14, align 8, !tbaa !25
  br label %43

43:                                               ; preds = %61, %41
  %44 = load i64, ptr %14, align 8, !tbaa !25
  %45 = call noundef i64 @_ZNK3gmx8ArrayRefIKfE5ssizeEv(ptr noundef nonnull align 8 dereferenceable(16) %5)
  %46 = icmp slt i64 %44, %45
  br i1 %46, label %48, label %47

47:                                               ; preds = %43
  call void @llvm.lifetime.end.p0(i64 8, ptr %14) #9
  br label %64

48:                                               ; preds = %43
  call void @llvm.lifetime.start.p0(i64 8, ptr %15) #9
  %49 = load double, ptr %11, align 8, !tbaa !4
  %50 = load i64, ptr %14, align 8, !tbaa !25
  %51 = call noundef nonnull align 4 dereferenceable(4) ptr @_ZNK3gmx8ArrayRefIKfEixEm(ptr noundef nonnull align 8 dereferenceable(16) %5, i64 noundef %50)
  %52 = load float, ptr %51, align 4, !tbaa !13
  %53 = fpext float %52 to double
  %54 = fmul double %49, %53
  %55 = load double, ptr %12, align 8, !tbaa !4
  %56 = call double @llvm.fmuladd.f64(double %54, double %55, double 1.000000e+00)
  store double %56, ptr %15, align 8, !tbaa !4
  %57 = load double, ptr %15, align 8, !tbaa !4
  %58 = call double @log(double noundef %57) #9, !tbaa !8
  %59 = load double, ptr %13, align 8, !tbaa !4
  %60 = fadd double %59, %58
  store double %60, ptr %13, align 8, !tbaa !4
  call void @llvm.lifetime.end.p0(i64 8, ptr %15) #9
  br label %61

61:                                               ; preds = %48
  %62 = load i64, ptr %14, align 8, !tbaa !25
  %63 = add nsw i64 %62, 1
  store i64 %63, ptr %14, align 8, !tbaa !25
  br label %43, !llvm.loop !38

64:                                               ; preds = %47
  %65 = load double, ptr %13, align 8, !tbaa !4
  %66 = fmul double 0x4010A1013E8990BE, %65
  call void @llvm.lifetime.end.p0(i64 8, ptr %13) #9
  call void @llvm.lifetime.end.p0(i64 8, ptr %12) #9
  call void @llvm.lifetime.end.p0(i64 8, ptr %11) #9
  call void @llvm.lifetime.end.p0(i64 8, ptr %10) #9
  call void @llvm.lifetime.end.p0(i64 8, ptr %9) #9
  call void @llvm.lifetime.end.p0(i64 8, ptr %8) #9
  ret double %66
}