; Function Attrs: mustprogress nofree nounwind uwtable
define noundef double @_Z20calcSchlitterEntropyN3gmx8ArrayRefIKfEEfb(ptr %0, ptr %1, float noundef %2, i1 noundef zeroext %3) local_unnamed_addr #4 {
  %5 = select i1 %3, i64 5, i64 6
  %6 = fpext float %2 to double
  %7 = fmul double %6, 0x3B30B0E6D55E647C
  %8 = fmul double %7, 0x401D8E64B8D4DDAE
  %9 = fdiv double %8, 0x31D3305F5B331615
  %10 = load ptr, ptr @debug, align 8, !tbaa !10
  %.not = icmp eq ptr %10, null
  %.pre = ptrtoint ptr %1 to i64
  %.pre22 = ptrtoint ptr %0 to i64
  %.pre24 = sub i64 %.pre, %.pre22
  %.pre26 = ashr exact i64 %.pre24, 2
  br i1 %.not, label %._crit_edge21, label %11

11:                                               ; preds = %4
  %12 = tail call i32 (ptr, ptr, ...) @fprintf(ptr noundef nonnull %10, ptr noundef nonnull @.str.17, i64 noundef %.pre26, double noundef %9, double noundef 0x36A2F5C2D95FF07B) #8
  br label %._crit_edge21

._crit_edge21:                                    ; preds = %4, %11
  %13 = icmp slt i64 %5, %.pre26
  br i1 %13, label %.lr.ph, label %._crit_edge

._crit_edge.loopexit:                             ; preds = %.lr.ph
  %14 = fmul double %21, 0x4010A1013E8990BE
  br label %._crit_edge

._crit_edge:                                      ; preds = %._crit_edge.loopexit, %._crit_edge21
  %.0.lcssa = phi double [ 0.000000e+00, %._crit_edge21 ], [ %14, %._crit_edge.loopexit ]
  ret double %.0.lcssa

.lr.ph:                                           ; preds = %._crit_edge21, %.lr.ph
  %.020 = phi double [ %21, %.lr.ph ], [ 0.000000e+00, %._crit_edge21 ]
  %.01519 = phi i64 [ %22, %.lr.ph ], [ %5, %._crit_edge21 ]
  %15 = getelementptr inbounds nuw float, ptr %0, i64 %.01519
  %16 = load float, ptr %15, align 4, !tbaa !8
  %17 = fpext float %16 to double
  %18 = fmul double %9, %17
  %19 = tail call double @llvm.fmuladd.f64(double %18, double 0x36A2F5C2D95FF07B, double 1.000000e+00)
  %20 = tail call double @log(double noundef %19) #8, !tbaa !4
  %21 = fadd double %.020, %20
  %22 = add nuw nsw i64 %.01519, 1
  %exitcond.not = icmp eq i64 %22, %.pre26
  br i1 %exitcond.not, label %._crit_edge.loopexit, label %.lr.ph, !llvm.loop !17
}